; Function Attrs: mustprogress uwtable
define dso_local void @_ZN5ImGui12TableNextRowEif(i32 noundef %0, float noundef %1) local_unnamed_addr #0 {
  %3 = load ptr, ptr @GImGui, align 8, !tbaa !4
  %4 = getelementptr inbounds nuw i8, ptr %3, i64 8536
  %5 = load ptr, ptr %4, align 8, !tbaa !259
  %6 = getelementptr inbounds nuw i8, ptr %5, i64 566
  %7 = load i8, ptr %6, align 2, !tbaa !208, !range !152, !noundef !153
  %8 = trunc nuw i8 %7 to i1
  br i1 %8, label %10, label %9

9:                                                ; preds = %2
  tail call void @_ZN5ImGui17TableUpdateLayoutEP10ImGuiTable(ptr noundef nonnull %5)
  br label %10

10:                                               ; preds = %9, %2
  %11 = getelementptr inbounds nuw i8, ptr %5, i64 567
  %12 = load i8, ptr %11, align 1, !tbaa !457, !range !152, !noundef !153
  %13 = trunc nuw i8 %12 to i1
  br i1 %13, label %14, label %15

14:                                               ; preds = %10
  tail call void @_ZN5ImGui11TableEndRowEP10ImGuiTable(ptr noundef nonnull %5)
  br label %15

15:                                               ; preds = %14, %10
  %16 = getelementptr inbounds nuw i8, ptr %5, i64 148
  %17 = load i32, ptr %16, align 4
  %18 = shl i32 %17, 16
  %19 = and i32 %0, 65535
  %20 = or disjoint i32 %18, %19
  store i32 %20, ptr %16, align 4
  %21 = getelementptr inbounds nuw i8, ptr %3, i64 3112
  %22 = load float, ptr %21, align 4, !tbaa !417
  %23 = getelementptr inbounds nuw i8, ptr %5, i64 136
  store float %22, ptr %23, align 8, !tbaa !250
  %24 = getelementptr inbounds nuw i8, ptr %5, i64 132
  store float %1, ptr %24, align 4, !tbaa !533
  tail call void @_ZN5ImGui13TableBeginRowEP10ImGuiTable(ptr noundef nonnull %5)
  %25 = load float, ptr %23, align 8, !tbaa !250
  %26 = fmul float %25, 2.000000e+00
  %27 = getelementptr inbounds nuw i8, ptr %5, i64 128
  %28 = load float, ptr %27, align 8, !tbaa !247
  %29 = fadd float %28, %26
  %30 = getelementptr inbounds nuw i8, ptr %5, i64 124
  %31 = load float, ptr %30, align 4, !tbaa !248
  %32 = fadd float %1, %31
  %33 = fcmp oge float %29, %32
  %34 = select i1 %33, float %29, float %32
  store float %34, ptr %27, align 8, !tbaa !247
  %35 = getelementptr inbounds nuw i8, ptr %5, i64 392
  %36 = load ptr, ptr %35, align 8, !tbaa !205
  %37 = getelementptr inbounds nuw i8, ptr %36, i64 207
  store i8 1, ptr %37, align 1, !tbaa !151
  ret void
}